; Function Attrs: mustprogress uwtable
define hidden noundef zeroext i1 @_ZNK18OpenImageIO_v2_6_09FitsInput10valid_fileERKNSt7__cxx1112basic_stringIcSt11char_traitsIcESaIcEEE(ptr nocapture nonnull readnone align 8 %this, ptr noundef nonnull align 8 dereferenceable(32) %filename) unnamed_addr #6 align 2 personality ptr @__gxx_personality_v0 {
entry:
  %agg.tmp = alloca %"class.OpenImageIO_v2_6_0::basic_string_view", align 8
  %agg.tmp2 = alloca %"class.OpenImageIO_v2_6_0::basic_string_view", align 8
  %magic = alloca [6 x i8], align 1
  %call.i = tail call noundef ptr @_ZNKSt7__cxx1112basic_stringIcSt11char_traitsIcESaIcEE4dataEv(ptr noundef nonnull align 8 dereferenceable(32) %filename) #22
  store ptr %call.i, ptr %agg.tmp, align 8
  %m_len.i = getelementptr inbounds i8, ptr %agg.tmp, i64 8
  %call2.i = tail call noundef i64 @_ZNKSt7__cxx1112basic_stringIcSt11char_traitsIcESaIcEE4sizeEv(ptr noundef nonnull align 8 dereferenceable(32) %filename) #22
  store i64 %call2.i, ptr %m_len.i, align 8
  store ptr @.str.1, ptr %agg.tmp2, align 8
  %m_len.i3 = getelementptr inbounds i8, ptr %agg.tmp2, i64 8
  store i64 2, ptr %m_len.i3, align 8
  %call = call noundef ptr @_ZN18OpenImageIO_v2_6_010Filesystem5fopenENS_17basic_string_viewIcSt11char_traitsIcEEES4_(ptr noundef nonnull %agg.tmp, ptr noundef nonnull %agg.tmp2)
  %tobool.not = icmp eq ptr %call, null
  br i1 %tobool.not, label %return, label %if.end

if.end:                                           ; preds = %entry
  call void @llvm.memset.p0.i64(ptr noundef nonnull align 1 dereferenceable(6) %magic, i8 0, i64 6, i1 false)
  %call3 = call i64 @fread(ptr noundef nonnull %magic, i64 noundef 1, i64 noundef 6, ptr noundef nonnull %call)
  %cmp = icmp eq i64 %call3, 6
  br i1 %cmp, label %land.rhs, label %land.end

land.rhs:                                         ; preds = %if.end
  %bcmp = call i32 @bcmp(ptr noundef nonnull dereferenceable(6) %magic, ptr noundef nonnull dereferenceable(6) @.str.2, i64 6)
  %tobool6.not = icmp eq i32 %bcmp, 0
  br label %land.end

land.end:                                         ; preds = %land.rhs, %if.end
  %0 = phi i1 [ false, %if.end ], [ %tobool6.not, %land.rhs ]
  %call7 = call i32 @fclose(ptr noundef nonnull %call)
  br label %return

return:                                           ; preds = %entry, %land.end
  %retval.0 = phi i1 [ %0, %land.end ], [ false, %entry ]
  ret i1 %retval.0
}